target datalayout = "e-m:e-p270:32:32-p271:32:32-p272:64:64-i64:64-i128:128-f80:128-n8:16:32:64-S128"
target triple = "x86_64-pc-linux-gnu"

@je_opt_retain = hidden global i8 1, align 1

; Function Attrs: nounwind uwtable
define hidden ptr @je_extent_alloc_mmap(ptr noundef %0, i64 noundef %1, i64 noundef %2, ptr noundef %3, ptr noundef %4) #0 {
  %6 = alloca ptr, align 8
  %7 = alloca ptr, align 8
  %8 = alloca i64, align 8
  %9 = alloca i64, align 8
  %10 = alloca ptr, align 8
  %11 = alloca ptr, align 8
  %12 = alloca ptr, align 8
  %13 = alloca i32, align 4
  store ptr %0, ptr %7, align 8, !tbaa !4
  store i64 %1, ptr %8, align 8, !tbaa !8
  store i64 %2, ptr %9, align 8, !tbaa !8
  store ptr %3, ptr %10, align 8, !tbaa !10
  store ptr %4, ptr %11, align 8, !tbaa !10
  br label %14

14:                                               ; preds = %5
  br label %15

15:                                               ; preds = %14
  call void @llvm.lifetime.start.p0(i64 8, ptr %12) #3
  %16 = load ptr, ptr %7, align 8, !tbaa !4
  %17 = load i64, ptr %8, align 8, !tbaa !8
  %18 = load i64, ptr %9, align 8, !tbaa !8
  %19 = load ptr, ptr %11, align 8, !tbaa !10
  %20 = call ptr @je_pages_map(ptr noundef %16, i64 noundef %17, i64 noundef %18, ptr noundef %19)
  store ptr %20, ptr %12, align 8, !tbaa !4
  %21 = load ptr, ptr %12, align 8, !tbaa !4
  %22 = icmp eq ptr %21, null
  br i1 %22, label %23, label %24

23:                                               ; preds = %15
  store ptr null, ptr %6, align 8
  store i32 1, ptr %13, align 4
  br label %35

24:                                               ; preds = %15
  br label %25

25:                                               ; preds = %24
  br label %26

26:                                               ; preds = %25
  br label %27

27:                                               ; preds = %26
  %28 = load ptr, ptr %11, align 8, !tbaa !10
  %29 = load i8, ptr %28, align 1, !tbaa !12, !range !14, !noundef !15
  %30 = trunc i8 %29 to i1
  br i1 %30, label %31, label %33

31:                                               ; preds = %27
  %32 = load ptr, ptr %10, align 8, !tbaa !10
  store i8 1, ptr %32, align 1, !tbaa !12
  br label %33

33:                                               ; preds = %31, %27
  %34 = load ptr, ptr %12, align 8, !tbaa !4
  store ptr %34, ptr %6, align 8
  store i32 1, ptr %13, align 4
  br label %35

35:                                               ; preds = %33, %23
  call void @llvm.lifetime.end.p0(i64 8, ptr %12) #3
  %36 = load ptr, ptr %6, align 8
  ret ptr %36
}

; Function Attrs: nocallback nofree nosync nounwind willreturn memory(argmem: readwrite)
declare void @llvm.lifetime.start.p0(i64 immarg, ptr captures(none)) #1

declare ptr @je_pages_map(ptr noundef, i64 noundef, i64 noundef, ptr noundef) #2

; Function Attrs: nocallback nofree nosync nounwind willreturn memory(argmem: readwrite)
declare void @llvm.lifetime.end.p0(i64 immarg, ptr captures(none)) #1

; Function Attrs: nounwind uwtable
define hidden zeroext i1 @je_extent_dalloc_mmap(ptr noundef %0, i64 noundef %1) #0 {
  %3 = alloca ptr, align 8
  %4 = alloca i64, align 8
  store ptr %0, ptr %3, align 8, !tbaa !4
  store i64 %1, ptr %4, align 8, !tbaa !8
  %5 = load i8, ptr @je_opt_retain, align 1, !tbaa !12, !range !14, !noundef !15
  %6 = trunc i8 %5 to i1
  br i1 %6, label %10, label %7

7:                                                ; preds = %2
  %8 = load ptr, ptr %3, align 8, !tbaa !4
  %9 = load i64, ptr %4, align 8, !tbaa !8
  call void @je_pages_unmap(ptr noundef %8, i64 noundef %9)
  br label %10

10:                                               ; preds = %7, %2
  %11 = load i8, ptr @je_opt_retain, align 1, !tbaa !12, !range !14, !noundef !15
  %12 = trunc i8 %11 to i1
  ret i1 %12
}

declare void @je_pages_unmap(ptr noundef, i64 noundef) #2


!llvm.module.flags = !{!0, !1, !2, !3}

!0 = !{i32 1, !"wchar_size", i32 4}
!1 = !{i32 8, !"PIC Level", i32 2}
!2 = !{i32 7, !"PIE Level", i32 2}
!3 = !{i32 7, !"uwtable", i32 2}
!4 = !{!5, !5, i64 0}
!5 = !{!"any pointer", !6, i64 0}
!6 = !{!"omnipotent char", !7, i64 0}
!7 = !{!"Simple C/C++ TBAA"}
!8 = !{!9, !9, i64 0}
!9 = !{!"long", !6, i64 0}
!10 = !{!11, !11, i64 0}
!11 = !{!"p1 _Bool", !5, i64 0}
!12 = !{!13, !13, i64 0}
!13 = !{!"_Bool", !6, i64 0}
!14 = !{i8 0, i8 2}
!15 = !{}
